target datalayout = "e-m:e-p270:32:32-p271:32:32-p272:64:64-i64:64-i128:128-f80:128-n8:16:32:64-S128"
target triple = "x86_64-pc-linux-gnu"

%struct.tls_buffer_st = type { ptr, i64, i64, i64, i64, i32, i32 }
%struct.tls_rl_record_st = type { i32, i32, i64, i64, i64, ptr, ptr, ptr, i16, [8 x i8] }
%struct.ossl_record_layer_st = type { ptr, ptr, i32, i32, i32, i32, i32, ptr, i16, ptr, ptr, ptr, i64, i32, [33 x %struct.tls_buffer_st], i64, i64, %struct.tls_buffer_st, [32 x %struct.tls_rl_record_st], i64, i64, i64, i32, ptr, i64, [8 x i8], i32, i32, i64, i32, ptr, ptr, i64, ptr, ptr, i32, i32, i32, i64, i64, i64, [64 x i8], i32, i32, i32, ptr, ptr, i32, i32, i64, ptr, ptr, %struct.dtls_bitmap_st, %struct.dtls_bitmap_st, i32, ptr, ptr, ptr, ptr, ptr, i64, ptr }
%struct.dtls_bitmap_st = type { i64, [8 x i8] }

; Function Attrs: nounwind uwtable
define i32 @tls_do_compress(ptr noundef %0, ptr noundef %1) #0 {
  %3 = alloca i32, align 4
  %4 = alloca ptr, align 8
  %5 = alloca ptr, align 8
  %6 = alloca i32, align 4
  %7 = alloca i32, align 4
  store ptr %0, ptr %4, align 8, !tbaa !16
  store ptr %1, ptr %5, align 8, !tbaa !13
  call void @llvm.lifetime.start.p0(i64 4, ptr %6) #10
  %8 = load ptr, ptr %4, align 8, !tbaa !16
  %9 = getelementptr inbounds nuw %struct.ossl_record_layer_st, ptr %8, i32 0, i32 34
  %10 = load ptr, ptr %9, align 8, !tbaa !117
  %11 = load ptr, ptr %5, align 8, !tbaa !13
  %12 = getelementptr inbounds nuw %struct.tls_rl_record_st, ptr %11, i32 0, i32 5
  %13 = load ptr, ptr %12, align 8, !tbaa !86
  %14 = load ptr, ptr %5, align 8, !tbaa !13
  %15 = getelementptr inbounds nuw %struct.tls_rl_record_st, ptr %14, i32 0, i32 2
  %16 = load i64, ptr %15, align 8, !tbaa !82
  %17 = add i64 %16, 1024
  %18 = trunc i64 %17 to i32
  %19 = load ptr, ptr %5, align 8, !tbaa !13
  %20 = getelementptr inbounds nuw %struct.tls_rl_record_st, ptr %19, i32 0, i32 6
  %21 = load ptr, ptr %20, align 8, !tbaa !85
  %22 = load ptr, ptr %5, align 8, !tbaa !13
  %23 = getelementptr inbounds nuw %struct.tls_rl_record_st, ptr %22, i32 0, i32 2
  %24 = load i64, ptr %23, align 8, !tbaa !82
  %25 = trunc i64 %24 to i32
  %26 = call i32 @COMP_compress_block(ptr noundef %10, ptr noundef %13, i32 noundef %18, ptr noundef %21, i32 noundef %25)
  store i32 %26, ptr %6, align 4, !tbaa !18
  %27 = load i32, ptr %6, align 4, !tbaa !18
  %28 = icmp slt i32 %27, 0
  br i1 %28, label %29, label %30

29:                                               ; preds = %2
  store i32 0, ptr %3, align 4
  store i32 1, ptr %7, align 4
  br label %40

30:                                               ; preds = %2
  %31 = load i32, ptr %6, align 4, !tbaa !18
  %32 = sext i32 %31 to i64
  %33 = load ptr, ptr %5, align 8, !tbaa !13
  %34 = getelementptr inbounds nuw %struct.tls_rl_record_st, ptr %33, i32 0, i32 2
  store i64 %32, ptr %34, align 8, !tbaa !82
  %35 = load ptr, ptr %5, align 8, !tbaa !13
  %36 = getelementptr inbounds nuw %struct.tls_rl_record_st, ptr %35, i32 0, i32 5
  %37 = load ptr, ptr %36, align 8, !tbaa !86
  %38 = load ptr, ptr %5, align 8, !tbaa !13
  %39 = getelementptr inbounds nuw %struct.tls_rl_record_st, ptr %38, i32 0, i32 6
  store ptr %37, ptr %39, align 8, !tbaa !85
  store i32 1, ptr %3, align 4
  store i32 1, ptr %7, align 4
  br label %40

40:                                               ; preds = %30, %29
  call void @llvm.lifetime.end.p0(i64 4, ptr %6) #10
  %41 = load i32, ptr %3, align 4
  ret i32 %41
}