; Function Attrs: nounwind uwtable
define range(i32 0, 2) i32 @tls_do_compress(ptr noundef readonly captures(none) %0, ptr noundef captures(none) %1) local_unnamed_addr #0 {
  %3 = getelementptr inbounds nuw i8, ptr %0, i64 4160
  %4 = load ptr, ptr %3, align 8, !tbaa !93
  %5 = getelementptr inbounds nuw i8, ptr %1, i64 32
  %6 = load ptr, ptr %5, align 8, !tbaa !69
  %7 = getelementptr inbounds nuw i8, ptr %1, i64 8
  %8 = load i64, ptr %7, align 8, !tbaa !65
  %9 = trunc i64 %8 to i32
  %10 = add i32 %9, 1024
  %11 = getelementptr inbounds nuw i8, ptr %1, i64 40
  %12 = load ptr, ptr %11, align 8, !tbaa !68
  %13 = tail call i32 @COMP_compress_block(ptr noundef %4, ptr noundef %6, i32 noundef %10, ptr noundef %12, i32 noundef %9) #13
  %14 = icmp slt i32 %13, 0
  br i1 %14, label %18, label %15

15:                                               ; preds = %2
  %16 = zext nneg i32 %13 to i64
  store i64 %16, ptr %7, align 8, !tbaa !65
  %17 = load ptr, ptr %5, align 8, !tbaa !69
  store ptr %17, ptr %11, align 8, !tbaa !68
  br label %18

18:                                               ; preds = %2, %15
  %.0 = phi i32 [ 1, %15 ], [ 0, %2 ]
  ret i32 %.0
}